; ModuleID = 'bench/openjdk/original/ClassLoadingImpl.ll'
source_filename = "bench/openjdk/original/ClassLoadingImpl.ll"
target datalayout = "e-m:e-p270:32:32-p271:32:32-p272:64:64-i64:64-i128:128-f80:128-n8:16:32:64-S128"
target triple = "x86_64-pc-linux-gnu"

@jmm_interface = external local_unnamed_addr global ptr, align 8

; Function Attrs: nounwind uwtable
define void @Java_sun_management_ClassLoadingImpl_setVerboseClass(ptr noundef %0, ptr nocapture noundef readnone %1, i8 noundef zeroext %2) local_unnamed_addr #0 {
  %4 = load ptr, ptr @jmm_interface, align 8
  %5 = getelementptr inbounds i8, ptr %4, i64 120
  %6 = load ptr, ptr %5, align 8
  %7 = tail call zeroext i8 %6(ptr noundef %0, i32 noundef 22, i8 noundef zeroext %2) #1
  ret void
}


!llvm.module.flags = !{!0, !1, !2, !3, !4, !5}

!0 = !{i32 7, !"Dwarf Version", i32 5}
!1 = !{i32 2, !"Debug Info Version", i32 3}
!2 = !{i32 1, !"wchar_size", i32 4}
!3 = !{i32 8, !"PIC Level", i32 2}
!4 = !{i32 7, !"uwtable", i32 2}
!5 = !{i32 7, !"frame-pointer", i32 2}
